target datalayout = "e-m:e-p270:32:32-p271:32:32-p272:64:64-i64:64-i128:128-f80:128-n8:16:32:64-S128"
target triple = "x86_64-pc-linux-gnu"

%struct.in6_addr = type { %union.anon }
%union.anon = type { [4 x i32] }

@evutil_v6addr_is_local_.ZEROES = internal constant [17 x i8] zeroinitializer, align 16

; Function Attrs: nounwind uwtable
define i32 @evutil_v6addr_is_local_(ptr noundef %0) #0 {
  %2 = alloca ptr, align 8
  %3 = alloca ptr, align 8
  store ptr %0, ptr %2, align 8
  call void @llvm.lifetime.start.p0(i64 8, ptr %3) #11
  %4 = load ptr, ptr %2, align 8
  %5 = getelementptr inbounds nuw %struct.in6_addr, ptr %4, i32 0, i32 0
  %6 = getelementptr inbounds [16 x i8], ptr %5, i64 0, i64 0
  store ptr %6, ptr %3, align 8
  %7 = load ptr, ptr %3, align 8
  %8 = call i32 @memcmp(ptr noundef %7, ptr noundef @evutil_v6addr_is_local_.ZEROES, i64 noundef 8) #13
  %9 = icmp ne i32 %8, 0
  br i1 %9, label %10, label %49

10:                                               ; preds = %1
  %11 = load ptr, ptr %3, align 8
  %12 = getelementptr inbounds i8, ptr %11, i64 0
  %13 = load i8, ptr %12, align 1
  %14 = zext i8 %13 to i32
  %15 = and i32 %14, 254
  %16 = icmp eq i32 %15, 252
  br i1 %16, label %49, label %17

17:                                               ; preds = %10
  %18 = load ptr, ptr %3, align 8
  %19 = getelementptr inbounds i8, ptr %18, i64 0
  %20 = load i8, ptr %19, align 1
  %21 = zext i8 %20 to i32
  %22 = icmp eq i32 %21, 254
  br i1 %22, label %23, label %30

23:                                               ; preds = %17
  %24 = load ptr, ptr %3, align 8
  %25 = getelementptr inbounds i8, ptr %24, i64 1
  %26 = load i8, ptr %25, align 1
  %27 = zext i8 %26 to i32
  %28 = and i32 %27, 192
  %29 = icmp eq i32 %28, 128
  br i1 %29, label %49, label %30

30:                                               ; preds = %23, %17
  %31 = load ptr, ptr %3, align 8
  %32 = getelementptr inbounds i8, ptr %31, i64 0
  %33 = load i8, ptr %32, align 1
  %34 = zext i8 %33 to i32
  %35 = icmp eq i32 %34, 254
  br i1 %35, label %36, label %43

36:                                               ; preds = %30
  %37 = load ptr, ptr %3, align 8
  %38 = getelementptr inbounds i8, ptr %37, i64 1
  %39 = load i8, ptr %38, align 1
  %40 = zext i8 %39 to i32
  %41 = and i32 %40, 192
  %42 = icmp eq i32 %41, 192
  br i1 %42, label %49, label %43

43:                                               ; preds = %36, %30
  %44 = load ptr, ptr %3, align 8
  %45 = getelementptr inbounds i8, ptr %44, i64 0
  %46 = load i8, ptr %45, align 1
  %47 = zext i8 %46 to i32
  %48 = icmp eq i32 %47, 255
  br label %49

49:                                               ; preds = %43, %36, %23, %10, %1
  %50 = phi i1 [ true, %36 ], [ true, %23 ], [ true, %10 ], [ true, %1 ], [ %48, %43 ]
  %51 = zext i1 %50 to i32
  call void @llvm.lifetime.end.p0(i64 8, ptr %3) #11
  ret i32 %51
}