; Function Attrs: mustprogress nofree nounwind willreturn memory(argmem: read) uwtable
define range(i32 0, 2) i32 @evutil_v6addr_is_local_(ptr noundef readonly captures(none) %0) local_unnamed_addr #11 {
  %bcmp = tail call i32 @bcmp(ptr noundef nonnull dereferenceable(8) %0, ptr noundef nonnull dereferenceable(8) @evutil_v6addr_is_local_.ZEROES, i64 8)
  %.not = icmp eq i32 %bcmp, 0
  br i1 %.not, label %14, label %2

2:                                                ; preds = %1
  %3 = load i8, ptr %0, align 1
  %4 = and i8 %3, -2
  %5 = icmp eq i8 %4, -4
  br i1 %5, label %14, label %6

6:                                                ; preds = %2
  %7 = icmp eq i8 %3, -2
  br i1 %7, label %8, label %11

8:                                                ; preds = %6
  %9 = getelementptr inbounds nuw i8, ptr %0, i64 1
  %10 = load i8, ptr %9, align 1
  %or.cond = icmp slt i8 %10, 0
  br i1 %or.cond, label %14, label %11

11:                                               ; preds = %8, %6
  %12 = icmp eq i8 %3, -1
  %13 = zext i1 %12 to i32
  br label %14

14:                                               ; preds = %11, %8, %2, %1
  %15 = phi i32 [ 1, %8 ], [ 1, %2 ], [ 1, %1 ], [ %13, %11 ]
  ret i32 %15
}